; Function Attrs: mustprogress uwtable
define dso_local void @_ZN22cmCTestMemCheckCommand23ProcessAdditionalValuesEP21cmCTestGenericHandler(ptr noundef nonnull align 8 dereferenceable(992) %0, ptr noundef %1) unnamed_addr #3 align 2 personality ptr @__gxx_personality_v0 {
  %3 = alloca %"class.std::__cxx11::basic_string", align 8
  %4 = getelementptr inbounds i8, ptr %0, i64 960
  %5 = tail call noundef zeroext i1 @_ZNKSt7__cxx1112basic_stringIcSt11char_traitsIcESaIcEE5emptyEv(ptr noundef nonnull align 8 dereferenceable(32) %4) #14
  br i1 %5, label %16, label %6

6:                                                ; preds = %2
  %7 = getelementptr inbounds i8, ptr %0, i64 8
  %8 = load ptr, ptr %7, align 8
  %9 = tail call noundef i32 @_ZNK22cmCTestMemCheckHandler14GetDefectCountEv(ptr noundef nonnull align 8 dereferenceable(4760) %1)
  call void @_ZNSt7__cxx119to_stringEi(ptr dead_on_unwind nonnull writable sret(%"class.std::__cxx11::basic_string") align 8 %3, i32 noundef %9) #14
  %10 = call { i64, ptr } @_ZNKSt7__cxx1112basic_stringIcSt11char_traitsIcESaIcEEcvSt17basic_string_viewIcS2_EEv(ptr noundef nonnull align 8 dereferenceable(32) %3) #14
  %11 = extractvalue { i64, ptr } %10, 0
  %12 = extractvalue { i64, ptr } %10, 1
  invoke void @_ZN10cmMakefile13AddDefinitionERKNSt7__cxx1112basic_stringIcSt11char_traitsIcESaIcEEESt17basic_string_viewIcS3_E(ptr noundef nonnull align 8 dereferenceable(3520) %8, ptr noundef nonnull align 8 dereferenceable(32) %4, i64 %11, ptr %12)
          to label %13 unwind label %14

13:                                               ; preds = %6
  call void @_ZNSt7__cxx1112basic_stringIcSt11char_traitsIcESaIcEED1Ev(ptr noundef nonnull align 8 dereferenceable(32) %3) #14
  br label %16

14:                                               ; preds = %6
  %15 = landingpad { ptr, i32 }
          cleanup
  call void @_ZNSt7__cxx1112basic_stringIcSt11char_traitsIcESaIcEED1Ev(ptr noundef nonnull align 8 dereferenceable(32) %3) #14
  resume { ptr, i32 } %15

16:                                               ; preds = %13, %2
  ret void
}